target datalayout = "e-m:e-p270:32:32-p271:32:32-p272:64:64-i64:64-i128:128-f80:128-n8:16:32:64-S128"
target triple = "x86_64-pc-linux-gnu"

%union.pthread_attr_t = type { i64, [48 x i8] }

@g_context_num = internal global i32 -1, align 4
@watch_node_thread_id = internal global i64 0, align 8
@acct_shutdown = internal global i8 1, align 1
@.str.12 = private unnamed_addr constant [26 x i8] c"%s: poll already started!\00", align 1
@__func__.acct_gather_energy_startpoll = private unnamed_addr constant [29 x i8] c"acct_gather_energy_startpoll\00", align 1
@freq = internal global i32 0, align 4
@.str.13 = private unnamed_addr constant [29 x i8] c"%s: dynamic logging disabled\00", align 1
@.str.14 = private unnamed_addr constant [22 x i8] c"pthread_attr_init: %m\00", align 1
@.str.15 = private unnamed_addr constant [26 x i8] c"pthread_attr_setscope: %m\00", align 1
@.str.16 = private unnamed_addr constant [30 x i8] c"pthread_attr_setstacksize: %m\00", align 1
@.str.17 = private unnamed_addr constant [28 x i8] c"%s: pthread_create error %m\00", align 1
@.str.18 = private unnamed_addr constant [55 x i8] c"pthread_attr_destroy failed, possible memory leak!: %m\00", align 1
@.str.19 = private unnamed_addr constant [28 x i8] c"%s: dynamic logging enabled\00", align 1

; Function Attrs: nounwind uwtable
define dso_local i32 @acct_gather_energy_startpoll(i32 noundef %0) #0 {
  %2 = alloca i32, align 4
  %3 = alloca i32, align 4
  %4 = alloca i32, align 4
  %5 = alloca i32, align 4
  %6 = alloca %union.pthread_attr_t, align 8
  %7 = alloca i32, align 4
  %8 = alloca i32, align 4
  %9 = alloca i32, align 4
  store i32 %0, ptr %3, align 4
  call void @llvm.lifetime.start.p0(i64 4, ptr %4) #7
  store i32 0, ptr %4, align 4
  %10 = load i32, ptr @g_context_num, align 4
  %11 = icmp ne i32 %10, 0
  br i1 %11, label %13, label %12

12:                                               ; preds = %1
  store i32 0, ptr %2, align 4
  store i32 1, ptr %5, align 4
  br label %94

13:                                               ; preds = %1
  %14 = load i8, ptr @acct_shutdown, align 1, !range !11, !noundef !12
  %15 = trunc i8 %14 to i1
  br i1 %15, label %19, label %16

16:                                               ; preds = %13
  %17 = call i32 (ptr, ...) @error(ptr noundef @.str.12, ptr noundef @__func__.acct_gather_energy_startpoll)
  %18 = load i32, ptr %4, align 4
  store i32 %18, ptr %2, align 4
  store i32 1, ptr %5, align 4
  br label %94

19:                                               ; preds = %13
  store i8 0, ptr @acct_shutdown, align 1
  %20 = load i32, ptr %3, align 4
  store i32 %20, ptr @freq, align 4
  %21 = load i32, ptr %3, align 4
  %22 = icmp eq i32 %21, 0
  br i1 %22, label %23, label %35

23:                                               ; preds = %19
  br label %24

24:                                               ; preds = %23
  br label %25

25:                                               ; preds = %24
  %26 = call i32 @get_log_level()
  %27 = icmp sge i32 %26, 6
  br i1 %27, label %28, label %29

28:                                               ; preds = %25
  call void (i32, ptr, ...) @log_var(i32 noundef 6, ptr noundef @.str.13, ptr noundef @__func__.acct_gather_energy_startpoll)
  br label %29

29:                                               ; preds = %28, %25
  br label %30

30:                                               ; preds = %29
  br label %31

31:                                               ; preds = %30
  br label %32

32:                                               ; preds = %31
  br label %33

33:                                               ; preds = %32
  %34 = load i32, ptr %4, align 4
  store i32 %34, ptr %2, align 4
  store i32 1, ptr %5, align 4
  br label %94

35:                                               ; preds = %19
  br label %36

36:                                               ; preds = %35
  call void @llvm.lifetime.start.p0(i64 56, ptr %6) #7
  call void @llvm.lifetime.start.p0(i64 4, ptr %7) #7
  br label %37

37:                                               ; preds = %36
  call void @llvm.lifetime.start.p0(i64 4, ptr %8) #7
  %38 = call i32 @pthread_attr_init(ptr noundef %6) #7
  store i32 %38, ptr %8, align 4
  %39 = load i32, ptr %8, align 4
  %40 = icmp ne i32 %39, 0
  br i1 %40, label %41, label %44

41:                                               ; preds = %37
  %42 = load i32, ptr %8, align 4
  %43 = call ptr @__errno_location() #8
  store i32 %42, ptr %43, align 4
  call void (ptr, ...) @fatal(ptr noundef @.str.14) #9
  unreachable

44:                                               ; preds = %37
  %45 = call i32 @pthread_attr_setscope(ptr noundef %6, i32 noundef 0) #7
  store i32 %45, ptr %8, align 4
  %46 = load i32, ptr %8, align 4
  %47 = icmp ne i32 %46, 0
  br i1 %47, label %48, label %52

48:                                               ; preds = %44
  %49 = load i32, ptr %8, align 4
  %50 = call ptr @__errno_location() #8
  store i32 %49, ptr %50, align 4
  %51 = call i32 (ptr, ...) @error(ptr noundef @.str.15)
  br label %52

52:                                               ; preds = %48, %44
  %53 = call i32 @pthread_attr_setstacksize(ptr noundef %6, i64 noundef 1048576) #7
  store i32 %53, ptr %8, align 4
  %54 = load i32, ptr %8, align 4
  %55 = icmp ne i32 %54, 0
  br i1 %55, label %56, label %60

56:                                               ; preds = %52
  %57 = load i32, ptr %8, align 4
  %58 = call ptr @__errno_location() #8
  store i32 %57, ptr %58, align 4
  %59 = call i32 (ptr, ...) @error(ptr noundef @.str.16)
  br label %60

60:                                               ; preds = %56, %52
  call void @llvm.lifetime.end.p0(i64 4, ptr %8) #7
  br label %61

61:                                               ; preds = %60
  br label %62

62:                                               ; preds = %61
  %63 = call i32 @pthread_create(ptr noundef @watch_node_thread_id, ptr noundef %6, ptr noundef @_watch_node, ptr noundef null) #7
  store i32 %63, ptr %7, align 4
  %64 = load i32, ptr %7, align 4
  %65 = icmp ne i32 %64, 0
  br i1 %65, label %66, label %69

66:                                               ; preds = %62
  %67 = load i32, ptr %7, align 4
  %68 = call ptr @__errno_location() #8
  store i32 %67, ptr %68, align 4
  call void (ptr, ...) @fatal(ptr noundef @.str.17, ptr noundef @__func__.acct_gather_energy_startpoll) #9
  unreachable

69:                                               ; preds = %62
  br label %70

70:                                               ; preds = %69
  call void @llvm.lifetime.start.p0(i64 4, ptr %9) #7
  %71 = call i32 @pthread_attr_destroy(ptr noundef %6) #7
  store i32 %71, ptr %9, align 4
  %72 = load i32, ptr %9, align 4
  %73 = icmp ne i32 %72, 0
  br i1 %73, label %74, label %78

74:                                               ; preds = %70
  %75 = load i32, ptr %9, align 4
  %76 = call ptr @__errno_location() #8
  store i32 %75, ptr %76, align 4
  %77 = call i32 (ptr, ...) @error(ptr noundef @.str.18)
  br label %78

78:                                               ; preds = %74, %70
  call void @llvm.lifetime.end.p0(i64 4, ptr %9) #7
  br label %79

79:                                               ; preds = %78
  br label %80

80:                                               ; preds = %79
  call void @llvm.lifetime.end.p0(i64 4, ptr %7) #7
  call void @llvm.lifetime.end.p0(i64 56, ptr %6) #7
  br label %81

81:                                               ; preds = %80
  br label %82

82:                                               ; preds = %81
  br label %83

83:                                               ; preds = %82
  br label %84

84:                                               ; preds = %83
  %85 = call i32 @get_log_level()
  %86 = icmp sge i32 %85, 7
  br i1 %86, label %87, label %88

87:                                               ; preds = %84
  call void (i32, ptr, ...) @log_var(i32 noundef 7, ptr noundef @.str.19, ptr noundef @__func__.acct_gather_energy_startpoll)
  br label %88

88:                                               ; preds = %87, %84
  br label %89

89:                                               ; preds = %88
  br label %90

90:                                               ; preds = %89
  br label %91

91:                                               ; preds = %90
  br label %92

92:                                               ; preds = %91
  %93 = load i32, ptr %4, align 4
  store i32 %93, ptr %2, align 4
  store i32 1, ptr %5, align 4
  br label %94

94:                                               ; preds = %92, %33, %16, %12
  call void @llvm.lifetime.end.p0(i64 4, ptr %4) #7
  %95 = load i32, ptr %2, align 4
  ret i32 %95
}