; Function Attrs: nounwind uwtable
define dso_local noundef i32 @acct_gather_energy_startpoll(i32 noundef %0) local_unnamed_addr #0 {
  %2 = alloca %union.pthread_attr_t, align 8
  %3 = load i32, ptr @g_context_num, align 4
  %.not = icmp eq i32 %3, 0
  br i1 %.not, label %40, label %4

4:                                                ; preds = %1
  %.b = load i1, ptr @acct_shutdown, align 1
  br i1 %.b, label %5, label %7

5:                                                ; preds = %4
  %6 = tail call i32 (ptr, ...) @error(ptr noundef nonnull @.str.12, ptr noundef nonnull @__func__.acct_gather_energy_startpoll) #8
  br label %40

7:                                                ; preds = %4
  store i1 true, ptr @acct_shutdown, align 1
  %8 = icmp eq i32 %0, 0
  br i1 %8, label %9, label %13

9:                                                ; preds = %7
  %10 = tail call i32 @get_log_level() #8
  %11 = icmp sgt i32 %10, 5
  br i1 %11, label %12, label %40

12:                                               ; preds = %9
  tail call void (i32, ptr, ...) @log_var(i32 noundef 6, ptr noundef nonnull @.str.13, ptr noundef nonnull @__func__.acct_gather_energy_startpoll) #8
  br label %40

13:                                               ; preds = %7
  call void @llvm.lifetime.start.p0(i64 56, ptr nonnull %2) #8
  %14 = call i32 @pthread_attr_init(ptr noundef nonnull %2) #8
  %.not20 = icmp eq i32 %14, 0
  br i1 %.not20, label %17, label %15

15:                                               ; preds = %13
  %16 = tail call ptr @__errno_location() #9
  store i32 %14, ptr %16, align 4
  call void (ptr, ...) @fatal(ptr noundef nonnull @.str.14) #10
  unreachable

17:                                               ; preds = %13
  %18 = call i32 @pthread_attr_setscope(ptr noundef nonnull %2, i32 noundef 0) #8
  %.not21 = icmp eq i32 %18, 0
  br i1 %.not21, label %22, label %19

19:                                               ; preds = %17
  %20 = tail call ptr @__errno_location() #9
  store i32 %18, ptr %20, align 4
  %21 = call i32 (ptr, ...) @error(ptr noundef nonnull @.str.15) #8
  br label %22

22:                                               ; preds = %19, %17
  %23 = call i32 @pthread_attr_setstacksize(ptr noundef nonnull %2, i64 noundef 1048576) #8
  %.not22 = icmp eq i32 %23, 0
  br i1 %.not22, label %27, label %24

24:                                               ; preds = %22
  %25 = tail call ptr @__errno_location() #9
  store i32 %23, ptr %25, align 4
  %26 = call i32 (ptr, ...) @error(ptr noundef nonnull @.str.16) #8
  br label %27

27:                                               ; preds = %24, %22
  %28 = call i32 @pthread_create(ptr noundef nonnull @watch_node_thread_id, ptr noundef nonnull %2, ptr noundef nonnull @_watch_node, ptr noundef null) #8
  %.not23 = icmp eq i32 %28, 0
  br i1 %.not23, label %31, label %29

29:                                               ; preds = %27
  %30 = tail call ptr @__errno_location() #9
  store i32 %28, ptr %30, align 4
  call void (ptr, ...) @fatal(ptr noundef nonnull @.str.17, ptr noundef nonnull @__func__.acct_gather_energy_startpoll) #10
  unreachable

31:                                               ; preds = %27
  %32 = call i32 @pthread_attr_destroy(ptr noundef nonnull %2) #8
  %.not24 = icmp eq i32 %32, 0
  br i1 %.not24, label %36, label %33

33:                                               ; preds = %31
  %34 = tail call ptr @__errno_location() #9
  store i32 %32, ptr %34, align 4
  %35 = call i32 (ptr, ...) @error(ptr noundef nonnull @.str.18) #8
  br label %36

36:                                               ; preds = %33, %31
  call void @llvm.lifetime.end.p0(i64 56, ptr nonnull %2) #8
  %37 = call i32 @get_log_level() #8
  %38 = icmp sgt i32 %37, 6
  br i1 %38, label %39, label %40

39:                                               ; preds = %36
  call void (i32, ptr, ...) @log_var(i32 noundef 7, ptr noundef nonnull @.str.19, ptr noundef nonnull @__func__.acct_gather_energy_startpoll) #8
  br label %40

40:                                               ; preds = %36, %39, %9, %12, %1, %5
  ret i32 0
}